target datalayout = "e-m:e-p270:32:32-p271:32:32-p272:64:64-i64:64-i128:128-f80:128-n8:16:32:64-S128"
target triple = "x86_64-pc-linux-gnu"

%struct.ossl_quic_frame_conn_close_st = type { i8, i64, i64, ptr, i64 }

; Function Attrs: nounwind uwtable
define internal i32 @encode_frame_hdr(ptr noundef %0, i64 noundef %1) #0 {
  %3 = alloca ptr, align 8
  %4 = alloca i64, align 8
  store ptr %0, ptr %3, align 8, !tbaa !21
  store i64 %1, ptr %4, align 8, !tbaa !8
  %5 = load ptr, ptr %3, align 8, !tbaa !21
  %6 = load i64, ptr %4, align 8, !tbaa !8
  %7 = call i32 @WPACKET_quic_write_vlint(ptr noundef %5, i64 noundef %6)
  ret i32 %7
}

; Function Attrs: nounwind uwtable
define i32 @ossl_quic_wire_encode_frame_conn_close(ptr noundef %0, ptr noundef %1) #0 {
  %3 = alloca i32, align 4
  %4 = alloca ptr, align 8
  %5 = alloca ptr, align 8
  store ptr %0, ptr %4, align 8, !tbaa !21
  store ptr %1, ptr %5, align 8, !tbaa !65
  %6 = load ptr, ptr %4, align 8, !tbaa !21
  %7 = load ptr, ptr %5, align 8, !tbaa !65
  %8 = load i8, ptr %7, align 8
  %9 = and i8 %8, 1
  %10 = zext i8 %9 to i32
  %11 = icmp ne i32 %10, 0
  %12 = select i1 %11, i32 29, i32 28
  %13 = sext i32 %12 to i64
  %14 = call i32 @encode_frame_hdr(ptr noundef %6, i64 noundef %13)
  %15 = icmp ne i32 %14, 0
  br i1 %15, label %16, label %23

16:                                               ; preds = %2
  %17 = load ptr, ptr %4, align 8, !tbaa !21
  %18 = load ptr, ptr %5, align 8, !tbaa !65
  %19 = getelementptr inbounds nuw %struct.ossl_quic_frame_conn_close_st, ptr %18, i32 0, i32 1
  %20 = load i64, ptr %19, align 8, !tbaa !67
  %21 = call i32 @WPACKET_quic_write_vlint(ptr noundef %17, i64 noundef %20)
  %22 = icmp ne i32 %21, 0
  br i1 %22, label %24, label %23

23:                                               ; preds = %16, %2
  store i32 0, ptr %3, align 4
  br label %57

24:                                               ; preds = %16
  %25 = load ptr, ptr %5, align 8, !tbaa !65
  %26 = load i8, ptr %25, align 8
  %27 = and i8 %26, 1
  %28 = zext i8 %27 to i32
  %29 = icmp ne i32 %28, 0
  br i1 %29, label %38, label %30

30:                                               ; preds = %24
  %31 = load ptr, ptr %4, align 8, !tbaa !21
  %32 = load ptr, ptr %5, align 8, !tbaa !65
  %33 = getelementptr inbounds nuw %struct.ossl_quic_frame_conn_close_st, ptr %32, i32 0, i32 2
  %34 = load i64, ptr %33, align 8, !tbaa !69
  %35 = call i32 @WPACKET_quic_write_vlint(ptr noundef %31, i64 noundef %34)
  %36 = icmp ne i32 %35, 0
  br i1 %36, label %38, label %37

37:                                               ; preds = %30
  store i32 0, ptr %3, align 4
  br label %57

38:                                               ; preds = %30, %24
  %39 = load ptr, ptr %4, align 8, !tbaa !21
  %40 = load ptr, ptr %5, align 8, !tbaa !65
  %41 = getelementptr inbounds nuw %struct.ossl_quic_frame_conn_close_st, ptr %40, i32 0, i32 4
  %42 = load i64, ptr %41, align 8, !tbaa !70
  %43 = call i32 @WPACKET_quic_write_vlint(ptr noundef %39, i64 noundef %42)
  %44 = icmp ne i32 %43, 0
  br i1 %44, label %45, label %55

45:                                               ; preds = %38
  %46 = load ptr, ptr %4, align 8, !tbaa !21
  %47 = load ptr, ptr %5, align 8, !tbaa !65
  %48 = getelementptr inbounds nuw %struct.ossl_quic_frame_conn_close_st, ptr %47, i32 0, i32 3
  %49 = load ptr, ptr %48, align 8, !tbaa !71
  %50 = load ptr, ptr %5, align 8, !tbaa !65
  %51 = getelementptr inbounds nuw %struct.ossl_quic_frame_conn_close_st, ptr %50, i32 0, i32 4
  %52 = load i64, ptr %51, align 8, !tbaa !70
  %53 = call i32 @WPACKET_memcpy(ptr noundef %46, ptr noundef %49, i64 noundef %52)
  %54 = icmp ne i32 %53, 0
  br i1 %54, label %56, label %55

55:                                               ; preds = %45, %38
  store i32 0, ptr %3, align 4
  br label %57

56:                                               ; preds = %45
  store i32 1, ptr %3, align 4
  br label %57

57:                                               ; preds = %56, %55, %37, %23
  %58 = load i32, ptr %3, align 4
  ret i32 %58
}