; Function Attrs: nounwind uwtable
define range(i32 0, 2) i32 @ossl_quic_wire_encode_frame_conn_close(ptr noundef %0, ptr noundef readonly captures(none) %1) local_unnamed_addr #2 {
  %3 = load i8, ptr %1, align 8
  %4 = and i8 %3, 1
  %.not = icmp eq i8 %4, 0
  %5 = select i1 %.not, i64 28, i64 29
  %6 = tail call i32 @WPACKET_quic_write_vlint(ptr noundef %0, i64 noundef %5) #12
  %.not12 = icmp eq i32 %6, 0
  br i1 %.not12, label %27, label %7

7:                                                ; preds = %2
  %8 = getelementptr inbounds nuw i8, ptr %1, i64 8
  %9 = load i64, ptr %8, align 8, !tbaa !46
  %10 = tail call i32 @WPACKET_quic_write_vlint(ptr noundef %0, i64 noundef %9) #12
  %.not13 = icmp eq i32 %10, 0
  br i1 %.not13, label %27, label %11

11:                                               ; preds = %7
  %12 = load i8, ptr %1, align 8
  %13 = and i8 %12, 1
  %.not14 = icmp eq i8 %13, 0
  br i1 %.not14, label %14, label %18

14:                                               ; preds = %11
  %15 = getelementptr inbounds nuw i8, ptr %1, i64 16
  %16 = load i64, ptr %15, align 8, !tbaa !48
  %17 = tail call i32 @WPACKET_quic_write_vlint(ptr noundef %0, i64 noundef %16) #12
  %.not15 = icmp eq i32 %17, 0
  br i1 %.not15, label %27, label %18

18:                                               ; preds = %14, %11
  %19 = getelementptr inbounds nuw i8, ptr %1, i64 32
  %20 = load i64, ptr %19, align 8, !tbaa !49
  %21 = tail call i32 @WPACKET_quic_write_vlint(ptr noundef %0, i64 noundef %20) #12
  %.not16 = icmp eq i32 %21, 0
  br i1 %.not16, label %27, label %22

22:                                               ; preds = %18
  %23 = getelementptr inbounds nuw i8, ptr %1, i64 24
  %24 = load ptr, ptr %23, align 8, !tbaa !50
  %25 = load i64, ptr %19, align 8, !tbaa !49
  %26 = tail call i32 @WPACKET_memcpy(ptr noundef %0, ptr noundef %24, i64 noundef %25) #12
  %.not17 = icmp ne i32 %26, 0
  %spec.select = zext i1 %.not17 to i32
  br label %27

27:                                               ; preds = %22, %18, %14, %2, %7
  %.0 = phi i32 [ 0, %7 ], [ 0, %2 ], [ 0, %14 ], [ 0, %18 ], [ %spec.select, %22 ]
  ret i32 %.0
}